target datalayout = "e-m:e-p270:32:32-p271:32:32-p272:64:64-i64:64-i128:128-f80:128-n8:16:32:64-S128"
target triple = "x86_64-pc-linux-gnu"

; Function Attrs: mustprogress nounwind uwtable
define internal noundef i32 @_ZL16DataTypeCompareTIdEiPKT_S2_(ptr noundef %0, ptr noundef %1) #4 {
  %3 = alloca i32, align 4
  %4 = alloca ptr, align 8
  %5 = alloca ptr, align 8
  store ptr %0, ptr %4, align 8, !tbaa !401
  store ptr %1, ptr %5, align 8, !tbaa !401
  %6 = load ptr, ptr %4, align 8, !tbaa !401
  %7 = load double, ptr %6, align 8, !tbaa !392
  %8 = load ptr, ptr %5, align 8, !tbaa !401
  %9 = load double, ptr %8, align 8, !tbaa !392
  %10 = fcmp olt double %7, %9
  br i1 %10, label %11, label %12

11:                                               ; preds = %2
  store i32 -1, ptr %3, align 4
  br label %20

12:                                               ; preds = %2
  %13 = load ptr, ptr %4, align 8, !tbaa !401
  %14 = load double, ptr %13, align 8, !tbaa !392
  %15 = load ptr, ptr %5, align 8, !tbaa !401
  %16 = load double, ptr %15, align 8, !tbaa !392
  %17 = fcmp ogt double %14, %16
  br i1 %17, label %18, label %19

18:                                               ; preds = %12
  store i32 1, ptr %3, align 4
  br label %20

19:                                               ; preds = %12
  store i32 0, ptr %3, align 4
  br label %20

20:                                               ; preds = %19, %18, %11
  %21 = load i32, ptr %3, align 4
  ret i32 %21
}

; Function Attrs: mustprogress nounwind uwtable
define internal noundef i32 @_ZL16DataTypeCompareTIfEiPKT_S2_(ptr noundef %0, ptr noundef %1) #4 {
  %3 = alloca i32, align 4
  %4 = alloca ptr, align 8
  %5 = alloca ptr, align 8
  store ptr %0, ptr %4, align 8, !tbaa !322
  store ptr %1, ptr %5, align 8, !tbaa !322
  %6 = load ptr, ptr %4, align 8, !tbaa !322
  %7 = load float, ptr %6, align 4, !tbaa !69
  %8 = load ptr, ptr %5, align 8, !tbaa !322
  %9 = load float, ptr %8, align 4, !tbaa !69
  %10 = fcmp olt float %7, %9
  br i1 %10, label %11, label %12

11:                                               ; preds = %2
  store i32 -1, ptr %3, align 4
  br label %20

12:                                               ; preds = %2
  %13 = load ptr, ptr %4, align 8, !tbaa !322
  %14 = load float, ptr %13, align 4, !tbaa !69
  %15 = load ptr, ptr %5, align 8, !tbaa !322
  %16 = load float, ptr %15, align 4, !tbaa !69
  %17 = fcmp ogt float %14, %16
  br i1 %17, label %18, label %19

18:                                               ; preds = %12
  store i32 1, ptr %3, align 4
  br label %20

19:                                               ; preds = %12
  store i32 0, ptr %3, align 4
  br label %20

20:                                               ; preds = %19, %18, %11
  %21 = load i32, ptr %3, align 4
  ret i32 %21
}

; Function Attrs: mustprogress nounwind uwtable
define internal noundef i32 @_ZL16DataTypeCompareTIyEiPKT_S2_(ptr noundef %0, ptr noundef %1) #4 {
  %3 = alloca i32, align 4
  %4 = alloca ptr, align 8
  %5 = alloca ptr, align 8
  store ptr %0, ptr %4, align 8, !tbaa !250
  store ptr %1, ptr %5, align 8, !tbaa !250
  %6 = load ptr, ptr %4, align 8, !tbaa !250
  %7 = load i64, ptr %6, align 8, !tbaa !249
  %8 = load ptr, ptr %5, align 8, !tbaa !250
  %9 = load i64, ptr %8, align 8, !tbaa !249
  %10 = icmp ult i64 %7, %9
  br i1 %10, label %11, label %12

11:                                               ; preds = %2
  store i32 -1, ptr %3, align 4
  br label %20

12:                                               ; preds = %2
  %13 = load ptr, ptr %4, align 8, !tbaa !250
  %14 = load i64, ptr %13, align 8, !tbaa !249
  %15 = load ptr, ptr %5, align 8, !tbaa !250
  %16 = load i64, ptr %15, align 8, !tbaa !249
  %17 = icmp ugt i64 %14, %16
  br i1 %17, label %18, label %19

18:                                               ; preds = %12
  store i32 1, ptr %3, align 4
  br label %20

19:                                               ; preds = %12
  store i32 0, ptr %3, align 4
  br label %20

20:                                               ; preds = %19, %18, %11
  %21 = load i32, ptr %3, align 4
  ret i32 %21
}

; Function Attrs: mustprogress nounwind uwtable
define internal noundef i32 @_ZL16DataTypeCompareTIxEiPKT_S2_(ptr noundef %0, ptr noundef %1) #4 {
  %3 = alloca i32, align 4
  %4 = alloca ptr, align 8
  %5 = alloca ptr, align 8
  store ptr %0, ptr %4, align 8, !tbaa !250
  store ptr %1, ptr %5, align 8, !tbaa !250
  %6 = load ptr, ptr %4, align 8, !tbaa !250
  %7 = load i64, ptr %6, align 8, !tbaa !249
  %8 = load ptr, ptr %5, align 8, !tbaa !250
  %9 = load i64, ptr %8, align 8, !tbaa !249
  %10 = icmp slt i64 %7, %9
  br i1 %10, label %11, label %12

11:                                               ; preds = %2
  store i32 -1, ptr %3, align 4
  br label %20

12:                                               ; preds = %2
  %13 = load ptr, ptr %4, align 8, !tbaa !250
  %14 = load i64, ptr %13, align 8, !tbaa !249
  %15 = load ptr, ptr %5, align 8, !tbaa !250
  %16 = load i64, ptr %15, align 8, !tbaa !249
  %17 = icmp sgt i64 %14, %16
  br i1 %17, label %18, label %19

18:                                               ; preds = %12
  store i32 1, ptr %3, align 4
  br label %20

19:                                               ; preds = %12
  store i32 0, ptr %3, align 4
  br label %20

20:                                               ; preds = %19, %18, %11
  %21 = load i32, ptr %3, align 4
  ret i32 %21
}

; Function Attrs: mustprogress nounwind uwtable
define internal noundef i32 @_ZL16DataTypeCompareTIjEiPKT_S2_(ptr noundef %0, ptr noundef %1) #4 {
  %3 = alloca i32, align 4
  %4 = alloca ptr, align 8
  %5 = alloca ptr, align 8
  store ptr %0, ptr %4, align 8, !tbaa !259
  store ptr %1, ptr %5, align 8, !tbaa !259
  %6 = load ptr, ptr %4, align 8, !tbaa !259
  %7 = load i32, ptr %6, align 4, !tbaa !8
  %8 = load ptr, ptr %5, align 8, !tbaa !259
  %9 = load i32, ptr %8, align 4, !tbaa !8
  %10 = icmp ult i32 %7, %9
  br i1 %10, label %11, label %12

11:                                               ; preds = %2
  store i32 -1, ptr %3, align 4
  br label %20

12:                                               ; preds = %2
  %13 = load ptr, ptr %4, align 8, !tbaa !259
  %14 = load i32, ptr %13, align 4, !tbaa !8
  %15 = load ptr, ptr %5, align 8, !tbaa !259
  %16 = load i32, ptr %15, align 4, !tbaa !8
  %17 = icmp ugt i32 %14, %16
  br i1 %17, label %18, label %19

18:                                               ; preds = %12
  store i32 1, ptr %3, align 4
  br label %20

19:                                               ; preds = %12
  store i32 0, ptr %3, align 4
  br label %20

20:                                               ; preds = %19, %18, %11
  %21 = load i32, ptr %3, align 4
  ret i32 %21
}

; Function Attrs: mustprogress nounwind uwtable
define internal noundef i32 @_ZL16DataTypeCompareTIiEiPKT_S2_(ptr noundef %0, ptr noundef %1) #4 {
  %3 = alloca i32, align 4
  %4 = alloca ptr, align 8
  %5 = alloca ptr, align 8
  store ptr %0, ptr %4, align 8, !tbaa !259
  store ptr %1, ptr %5, align 8, !tbaa !259
  %6 = load ptr, ptr %4, align 8, !tbaa !259
  %7 = load i32, ptr %6, align 4, !tbaa !8
  %8 = load ptr, ptr %5, align 8, !tbaa !259
  %9 = load i32, ptr %8, align 4, !tbaa !8
  %10 = icmp slt i32 %7, %9
  br i1 %10, label %11, label %12

11:                                               ; preds = %2
  store i32 -1, ptr %3, align 4
  br label %20

12:                                               ; preds = %2
  %13 = load ptr, ptr %4, align 8, !tbaa !259
  %14 = load i32, ptr %13, align 4, !tbaa !8
  %15 = load ptr, ptr %5, align 8, !tbaa !259
  %16 = load i32, ptr %15, align 4, !tbaa !8
  %17 = icmp sgt i32 %14, %16
  br i1 %17, label %18, label %19

18:                                               ; preds = %12
  store i32 1, ptr %3, align 4
  br label %20

19:                                               ; preds = %12
  store i32 0, ptr %3, align 4
  br label %20

20:                                               ; preds = %19, %18, %11
  %21 = load i32, ptr %3, align 4
  ret i32 %21
}

; Function Attrs: mustprogress nounwind uwtable
define internal noundef i32 @_ZL16DataTypeCompareTItEiPKT_S2_(ptr noundef %0, ptr noundef %1) #4 {
  %3 = alloca i32, align 4
  %4 = alloca ptr, align 8
  %5 = alloca ptr, align 8
  store ptr %0, ptr %4, align 8, !tbaa !400
  store ptr %1, ptr %5, align 8, !tbaa !400
  %6 = load ptr, ptr %4, align 8, !tbaa !400
  %7 = load i16, ptr %6, align 2, !tbaa !206
  %8 = zext i16 %7 to i32
  %9 = load ptr, ptr %5, align 8, !tbaa !400
  %10 = load i16, ptr %9, align 2, !tbaa !206
  %11 = zext i16 %10 to i32
  %12 = icmp slt i32 %8, %11
  br i1 %12, label %13, label %14

13:                                               ; preds = %2
  store i32 -1, ptr %3, align 4
  br label %24

14:                                               ; preds = %2
  %15 = load ptr, ptr %4, align 8, !tbaa !400
  %16 = load i16, ptr %15, align 2, !tbaa !206
  %17 = zext i16 %16 to i32
  %18 = load ptr, ptr %5, align 8, !tbaa !400
  %19 = load i16, ptr %18, align 2, !tbaa !206
  %20 = zext i16 %19 to i32
  %21 = icmp sgt i32 %17, %20
  br i1 %21, label %22, label %23

22:                                               ; preds = %14
  store i32 1, ptr %3, align 4
  br label %24

23:                                               ; preds = %14
  store i32 0, ptr %3, align 4
  br label %24

24:                                               ; preds = %23, %22, %13
  %25 = load i32, ptr %3, align 4
  ret i32 %25
}

; Function Attrs: mustprogress nounwind uwtable
define internal noundef i32 @_ZL16DataTypeCompareTIsEiPKT_S2_(ptr noundef %0, ptr noundef %1) #4 {
  %3 = alloca i32, align 4
  %4 = alloca ptr, align 8
  %5 = alloca ptr, align 8
  store ptr %0, ptr %4, align 8, !tbaa !400
  store ptr %1, ptr %5, align 8, !tbaa !400
  %6 = load ptr, ptr %4, align 8, !tbaa !400
  %7 = load i16, ptr %6, align 2, !tbaa !206
  %8 = sext i16 %7 to i32
  %9 = load ptr, ptr %5, align 8, !tbaa !400
  %10 = load i16, ptr %9, align 2, !tbaa !206
  %11 = sext i16 %10 to i32
  %12 = icmp slt i32 %8, %11
  br i1 %12, label %13, label %14

13:                                               ; preds = %2
  store i32 -1, ptr %3, align 4
  br label %24

14:                                               ; preds = %2
  %15 = load ptr, ptr %4, align 8, !tbaa !400
  %16 = load i16, ptr %15, align 2, !tbaa !206
  %17 = sext i16 %16 to i32
  %18 = load ptr, ptr %5, align 8, !tbaa !400
  %19 = load i16, ptr %18, align 2, !tbaa !206
  %20 = sext i16 %19 to i32
  %21 = icmp sgt i32 %17, %20
  br i1 %21, label %22, label %23

22:                                               ; preds = %14
  store i32 1, ptr %3, align 4
  br label %24

23:                                               ; preds = %14
  store i32 0, ptr %3, align 4
  br label %24

24:                                               ; preds = %23, %22, %13
  %25 = load i32, ptr %3, align 4
  ret i32 %25
}

; Function Attrs: mustprogress nounwind uwtable
define internal noundef i32 @_ZL16DataTypeCompareTIhEiPKT_S2_(ptr noundef %0, ptr noundef %1) #4 {
  %3 = alloca i32, align 4
  %4 = alloca ptr, align 8
  %5 = alloca ptr, align 8
  store ptr %0, ptr %4, align 8, !tbaa !3
  store ptr %1, ptr %5, align 8, !tbaa !3
  %6 = load ptr, ptr %4, align 8, !tbaa !3
  %7 = load i8, ptr %6, align 1, !tbaa !382
  %8 = zext i8 %7 to i32
  %9 = load ptr, ptr %5, align 8, !tbaa !3
  %10 = load i8, ptr %9, align 1, !tbaa !382
  %11 = zext i8 %10 to i32
  %12 = icmp slt i32 %8, %11
  br i1 %12, label %13, label %14

13:                                               ; preds = %2
  store i32 -1, ptr %3, align 4
  br label %24

14:                                               ; preds = %2
  %15 = load ptr, ptr %4, align 8, !tbaa !3
  %16 = load i8, ptr %15, align 1, !tbaa !382
  %17 = zext i8 %16 to i32
  %18 = load ptr, ptr %5, align 8, !tbaa !3
  %19 = load i8, ptr %18, align 1, !tbaa !382
  %20 = zext i8 %19 to i32
  %21 = icmp sgt i32 %17, %20
  br i1 %21, label %22, label %23

22:                                               ; preds = %14
  store i32 1, ptr %3, align 4
  br label %24

23:                                               ; preds = %14
  store i32 0, ptr %3, align 4
  br label %24

24:                                               ; preds = %23, %22, %13
  %25 = load i32, ptr %3, align 4
  ret i32 %25
}

; Function Attrs: mustprogress nounwind uwtable
define internal noundef i32 @_ZL16DataTypeCompareTIaEiPKT_S2_(ptr noundef %0, ptr noundef %1) #4 {
  %3 = alloca i32, align 4
  %4 = alloca ptr, align 8
  %5 = alloca ptr, align 8
  store ptr %0, ptr %4, align 8, !tbaa !3
  store ptr %1, ptr %5, align 8, !tbaa !3
  %6 = load ptr, ptr %4, align 8, !tbaa !3
  %7 = load i8, ptr %6, align 1, !tbaa !382
  %8 = sext i8 %7 to i32
  %9 = load ptr, ptr %5, align 8, !tbaa !3
  %10 = load i8, ptr %9, align 1, !tbaa !382
  %11 = sext i8 %10 to i32
  %12 = icmp slt i32 %8, %11
  br i1 %12, label %13, label %14

13:                                               ; preds = %2
  store i32 -1, ptr %3, align 4
  br label %24

14:                                               ; preds = %2
  %15 = load ptr, ptr %4, align 8, !tbaa !3
  %16 = load i8, ptr %15, align 1, !tbaa !382
  %17 = sext i8 %16 to i32
  %18 = load ptr, ptr %5, align 8, !tbaa !3
  %19 = load i8, ptr %18, align 1, !tbaa !382
  %20 = sext i8 %19 to i32
  %21 = icmp sgt i32 %17, %20
  br i1 %21, label %22, label %23

22:                                               ; preds = %14
  store i32 1, ptr %3, align 4
  br label %24

23:                                               ; preds = %14
  store i32 0, ptr %3, align 4
  br label %24

24:                                               ; preds = %23, %22, %13
  %25 = load i32, ptr %3, align 4
  ret i32 %25
}

; Function Attrs: mustprogress uwtable
define noundef i32 @_ZN5ImGui15DataTypeCompareEiPKvS1_(i32 noundef %0, ptr noundef %1, ptr noundef %2) #9 {
  %4 = alloca i32, align 4
  %5 = alloca i32, align 4
  %6 = alloca ptr, align 8
  %7 = alloca ptr, align 8
  store i32 %0, ptr %5, align 4, !tbaa !8
  store ptr %1, ptr %6, align 8, !tbaa !334
  store ptr %2, ptr %7, align 8, !tbaa !334
  %8 = load i32, ptr %5, align 4, !tbaa !8
  switch i32 %8, label %49 [
    i32 0, label %9
    i32 1, label %13
    i32 2, label %17
    i32 3, label %21
    i32 4, label %25
    i32 5, label %29
    i32 6, label %33
    i32 7, label %37
    i32 8, label %41
    i32 9, label %45
    i32 12, label %49
  ]

9:                                                ; preds = %3
  %10 = load ptr, ptr %6, align 8, !tbaa !334
  %11 = load ptr, ptr %7, align 8, !tbaa !334
  %12 = call noundef i32 @_ZL16DataTypeCompareTIaEiPKT_S2_(ptr noundef %10, ptr noundef %11)
  store i32 %12, ptr %4, align 4
  br label %50

13:                                               ; preds = %3
  %14 = load ptr, ptr %6, align 8, !tbaa !334
  %15 = load ptr, ptr %7, align 8, !tbaa !334
  %16 = call noundef i32 @_ZL16DataTypeCompareTIhEiPKT_S2_(ptr noundef %14, ptr noundef %15)
  store i32 %16, ptr %4, align 4
  br label %50

17:                                               ; preds = %3
  %18 = load ptr, ptr %6, align 8, !tbaa !334
  %19 = load ptr, ptr %7, align 8, !tbaa !334
  %20 = call noundef i32 @_ZL16DataTypeCompareTIsEiPKT_S2_(ptr noundef %18, ptr noundef %19)
  store i32 %20, ptr %4, align 4
  br label %50

21:                                               ; preds = %3
  %22 = load ptr, ptr %6, align 8, !tbaa !334
  %23 = load ptr, ptr %7, align 8, !tbaa !334
  %24 = call noundef i32 @_ZL16DataTypeCompareTItEiPKT_S2_(ptr noundef %22, ptr noundef %23)
  store i32 %24, ptr %4, align 4
  br label %50

25:                                               ; preds = %3
  %26 = load ptr, ptr %6, align 8, !tbaa !334
  %27 = load ptr, ptr %7, align 8, !tbaa !334
  %28 = call noundef i32 @_ZL16DataTypeCompareTIiEiPKT_S2_(ptr noundef %26, ptr noundef %27)
  store i32 %28, ptr %4, align 4
  br label %50

29:                                               ; preds = %3
  %30 = load ptr, ptr %6, align 8, !tbaa !334
  %31 = load ptr, ptr %7, align 8, !tbaa !334
  %32 = call noundef i32 @_ZL16DataTypeCompareTIjEiPKT_S2_(ptr noundef %30, ptr noundef %31)
  store i32 %32, ptr %4, align 4
  br label %50

33:                                               ; preds = %3
  %34 = load ptr, ptr %6, align 8, !tbaa !334
  %35 = load ptr, ptr %7, align 8, !tbaa !334
  %36 = call noundef i32 @_ZL16DataTypeCompareTIxEiPKT_S2_(ptr noundef %34, ptr noundef %35)
  store i32 %36, ptr %4, align 4
  br label %50

37:                                               ; preds = %3
  %38 = load ptr, ptr %6, align 8, !tbaa !334
  %39 = load ptr, ptr %7, align 8, !tbaa !334
  %40 = call noundef i32 @_ZL16DataTypeCompareTIyEiPKT_S2_(ptr noundef %38, ptr noundef %39)
  store i32 %40, ptr %4, align 4
  br label %50

41:                                               ; preds = %3
  %42 = load ptr, ptr %6, align 8, !tbaa !334
  %43 = load ptr, ptr %7, align 8, !tbaa !334
  %44 = call noundef i32 @_ZL16DataTypeCompareTIfEiPKT_S2_(ptr noundef %42, ptr noundef %43)
  store i32 %44, ptr %4, align 4
  br label %50

45:                                               ; preds = %3
  %46 = load ptr, ptr %6, align 8, !tbaa !334
  %47 = load ptr, ptr %7, align 8, !tbaa !334
  %48 = call noundef i32 @_ZL16DataTypeCompareTIdEiPKT_S2_(ptr noundef %46, ptr noundef %47)
  store i32 %48, ptr %4, align 4
  br label %50

49:                                               ; preds = %3, %3
  store i32 0, ptr %4, align 4
  br label %50

50:                                               ; preds = %49, %45, %41, %37, %33, %29, %25, %21, %17, %13, %9
  %51 = load i32, ptr %4, align 4
  ret i32 %51
}