; Function Attrs: mustprogress nofree norecurse nosync nounwind willreturn memory(argmem: read) uwtable
define noundef range(i32 -1, 2) i32 @_ZN5ImGui15DataTypeCompareEiPKvS1_(i32 noundef %0, ptr noundef readonly captures(none) %1, ptr noundef readonly captures(none) %2) local_unnamed_addr #12 {
  switch i32 %0, label %18 [
    i32 0, label %4
    i32 1, label %5
    i32 2, label %6
    i32 3, label %7
    i32 4, label %8
    i32 5, label %9
    i32 6, label %10
    i32 7, label %11
    i32 8, label %12
    i32 9, label %15
  ]

4:                                                ; preds = %3
  %.val = load i8, ptr %1, align 1, !tbaa !341
  %.val21 = load i8, ptr %2, align 1, !tbaa !341
  %.0.i = tail call noundef range(i32 -1, 2) i32 @llvm.scmp.i32.i8(i8 %.val, i8 %.val21)
  br label %18

5:                                                ; preds = %3
  %.val22 = load i8, ptr %1, align 1, !tbaa !341
  %.val23 = load i8, ptr %2, align 1, !tbaa !341
  %.0.i40 = tail call noundef range(i32 -1, 2) i32 @llvm.ucmp.i32.i8(i8 %.val22, i8 %.val23)
  br label %18

6:                                                ; preds = %3
  %.val24 = load i16, ptr %1, align 2, !tbaa !190
  %.val25 = load i16, ptr %2, align 2, !tbaa !190
  %.0.i41 = tail call noundef range(i32 -1, 2) i32 @llvm.scmp.i32.i16(i16 %.val24, i16 %.val25)
  br label %18

7:                                                ; preds = %3
  %.val26 = load i16, ptr %1, align 2, !tbaa !190
  %.val27 = load i16, ptr %2, align 2, !tbaa !190
  %.0.i42 = tail call noundef range(i32 -1, 2) i32 @llvm.ucmp.i32.i16(i16 %.val26, i16 %.val27)
  br label %18

8:                                                ; preds = %3
  %.val28 = load i32, ptr %1, align 4, !tbaa !177
  %.val29 = load i32, ptr %2, align 4, !tbaa !177
  %.0.i43 = tail call noundef range(i32 -1, 2) i32 @llvm.scmp.i32.i32(i32 %.val28, i32 %.val29)
  br label %18

9:                                                ; preds = %3
  %.val30 = load i32, ptr %1, align 4, !tbaa !177
  %.val31 = load i32, ptr %2, align 4, !tbaa !177
  %.0.i44 = tail call noundef range(i32 -1, 2) i32 @llvm.ucmp.i32.i32(i32 %.val30, i32 %.val31)
  br label %18

10:                                               ; preds = %3
  %.val32 = load i64, ptr %1, align 8, !tbaa !227
  %.val33 = load i64, ptr %2, align 8, !tbaa !227
  %.0.i45 = tail call noundef range(i32 -1, 2) i32 @llvm.scmp.i32.i64(i64 %.val32, i64 %.val33)
  br label %18

11:                                               ; preds = %3
  %.val34 = load i64, ptr %1, align 8, !tbaa !227
  %.val35 = load i64, ptr %2, align 8, !tbaa !227
  %.0.i46 = tail call noundef range(i32 -1, 2) i32 @llvm.ucmp.i32.i64(i64 %.val34, i64 %.val35)
  br label %18

12:                                               ; preds = %3
  %.val36 = load float, ptr %1, align 4, !tbaa !191
  %.val37 = load float, ptr %2, align 4, !tbaa !191
  %13 = fcmp olt float %.val36, %.val37
  %14 = fcmp ogt float %.val36, %.val37
  %..i = zext i1 %14 to i32
  %.0.i47 = select i1 %13, i32 -1, i32 %..i
  br label %18

15:                                               ; preds = %3
  %.val38 = load double, ptr %1, align 8, !tbaa !346
  %.val39 = load double, ptr %2, align 8, !tbaa !346
  %16 = fcmp olt double %.val38, %.val39
  %17 = fcmp ogt double %.val38, %.val39
  %..i48 = zext i1 %17 to i32
  %.0.i49 = select i1 %16, i32 -1, i32 %..i48
  br label %18

18:                                               ; preds = %3, %15, %12, %11, %10, %9, %8, %7, %6, %5, %4
  %.0 = phi i32 [ %.0.i49, %15 ], [ %.0.i47, %12 ], [ %.0.i46, %11 ], [ %.0.i45, %10 ], [ %.0.i44, %9 ], [ %.0.i43, %8 ], [ %.0.i42, %7 ], [ %.0.i41, %6 ], [ %.0.i40, %5 ], [ %.0.i, %4 ], [ 0, %3 ]
  ret i32 %.0
}